; Function Attrs: mustprogress nofree norecurse nosync nounwind willreturn memory(argmem: readwrite) uwtable
define hidden noundef zeroext i1 @_ZN10polynomial7manager6is_varEPKNS_8monomialERj(ptr nocapture noundef readonly %m, ptr nocapture noundef nonnull writeonly align 4 dereferenceable(4) %v) local_unnamed_addr #6 align 2 {
entry:
  %m_size.i = getelementptr inbounds i8, ptr %m, i64 12
  %0 = load i32, ptr %m_size.i, align 4
  %cmp = icmp eq i32 %0, 1
  br i1 %cmp, label %land.lhs.true, label %land.end

land.lhs.true:                                    ; preds = %entry
  %second.i.i = getelementptr inbounds i8, ptr %m, i64 24
  %1 = load i32, ptr %second.i.i, align 4
  %cmp2 = icmp eq i32 %1, 1
  br i1 %cmp2, label %land.rhs, label %land.end

land.rhs:                                         ; preds = %land.lhs.true
  %m_powers.i.i = getelementptr inbounds i8, ptr %m, i64 20
  %2 = load i32, ptr %m_powers.i.i, align 4
  store i32 %2, ptr %v, align 4
  br label %land.end

land.end:                                         ; preds = %land.rhs, %land.lhs.true, %entry
  %3 = phi i1 [ false, %land.lhs.true ], [ false, %entry ], [ true, %land.rhs ]
  ret i1 %3
}